target datalayout = "e-m:e-p270:32:32-p271:32:32-p272:64:64-i64:64-i128:128-f80:128-n8:16:32:64-S128"
target triple = "x86_64-pc-linux-gnu"

%struct.anon.3 = type { i32, i32, i32 }
%struct.HeapTupleData = type { i32, %struct.ItemPointerData, i32, ptr }
%struct.ItemPointerData = type { %struct.BlockIdData, i16 }
%struct.BlockIdData = type { i16, i16 }
%struct.HeapTupleHeaderData = type { %union.anon.1, %struct.ItemPointerData, i16, i16, i8, [0 x i8] }
%union.anon.1 = type { %struct.HeapTupleFields }
%struct.HeapTupleFields = type { i32, i32, %union.anon.2 }
%union.anon.2 = type { i32 }

@.str.1 = private unnamed_addr constant [9 x i8] c"heapam.c\00", align 1
@tupleLockExtraInfo = internal constant [4 x %struct.anon.3] [%struct.anon.3 { i32 1, i32 0, i32 -1 }, %struct.anon.3 { i32 2, i32 1, i32 -1 }, %struct.anon.3 { i32 7, i32 2, i32 4 }, %struct.anon.3 { i32 8, i32 3, i32 5 }], align 16
@MultiXactStatusLock = internal constant [6 x i32] [i32 0, i32 1, i32 2, i32 3, i32 2, i32 3], align 16
@.str.30 = private unnamed_addr constant [30 x i8] c"invalid lock tuple mode %d/%s\00", align 1
@.str.31 = private unnamed_addr constant [5 x i8] c"true\00", align 1
@.str.32 = private unnamed_addr constant [6 x i8] c"false\00", align 1
@__func__.get_mxact_status_for_lock = private unnamed_addr constant [26 x i8] c"get_mxact_status_for_lock\00", align 1

; Function Attrs: nounwind uwtable
define internal i32 @get_mxact_status_for_lock(i32 noundef %0, i1 noundef zeroext %1) #0 {
  %3 = alloca i32, align 4
  %4 = alloca i8, align 1
  %5 = alloca i32, align 4
  store i32 %0, ptr %3, align 4
  %6 = zext i1 %1 to i8
  store i8 %6, ptr %4, align 1
  call void @llvm.lifetime.start.p0(i64 4, ptr %5) #10
  %7 = load i8, ptr %4, align 1, !range !4, !noundef !5
  %8 = trunc i8 %7 to i1
  br i1 %8, label %9, label %15

9:                                                ; preds = %2
  %10 = load i32, ptr %3, align 4
  %11 = zext i32 %10 to i64
  %12 = getelementptr inbounds nuw [4 x %struct.anon.3], ptr @tupleLockExtraInfo, i64 0, i64 %11
  %13 = getelementptr inbounds nuw %struct.anon.3, ptr %12, i32 0, i32 2
  %14 = load i32, ptr %13, align 4
  store i32 %14, ptr %5, align 4
  br label %21

15:                                               ; preds = %2
  %16 = load i32, ptr %3, align 4
  %17 = zext i32 %16 to i64
  %18 = getelementptr inbounds nuw [4 x %struct.anon.3], ptr @tupleLockExtraInfo, i64 0, i64 %17
  %19 = getelementptr inbounds nuw %struct.anon.3, ptr %18, i32 0, i32 1
  %20 = load i32, ptr %19, align 4
  store i32 %20, ptr %5, align 4
  br label %21

21:                                               ; preds = %15, %9
  %22 = load i32, ptr %5, align 4
  %23 = icmp eq i32 %22, -1
  br i1 %23, label %24, label %39

24:                                               ; preds = %21
  br label %25

25:                                               ; preds = %24
  br i1 true, label %26, label %28

26:                                               ; preds = %25
  %27 = call zeroext i1 @errstart_cold(i32 noundef 21, ptr noundef null) #11
  br i1 %27, label %30, label %36

28:                                               ; preds = %25
  %29 = call zeroext i1 @errstart(i32 noundef 21, ptr noundef null)
  br i1 %29, label %30, label %36

30:                                               ; preds = %28, %26
  %31 = load i32, ptr %3, align 4
  %32 = load i8, ptr %4, align 1, !range !4, !noundef !5
  %33 = trunc i8 %32 to i1
  %34 = select i1 %33, ptr @.str.31, ptr @.str.32
  %35 = call i32 (ptr, ...) @errmsg_internal(ptr noundef @.str.30, i32 noundef %31, ptr noundef %34)
  call void @errfinish(ptr noundef @.str.1, i32 noundef 4458, ptr noundef @__func__.get_mxact_status_for_lock)
  br label %36

36:                                               ; preds = %30, %28, %26
  unreachable

37:                                               ; No predecessors!
  br label %38

38:                                               ; preds = %37
  br label %39

39:                                               ; preds = %38, %21
  %40 = load i32, ptr %5, align 4
  call void @llvm.lifetime.end.p0(i64 4, ptr %5) #10
  ret i32 %40
}

; Function Attrs: nounwind uwtable
define internal i32 @test_lockmode_for_conflict(i32 noundef %0, i32 noundef %1, i32 noundef %2, ptr noundef %3, ptr noundef %4) #0 {
  %6 = alloca i32, align 4
  %7 = alloca i32, align 4
  %8 = alloca i32, align 4
  %9 = alloca i32, align 4
  %10 = alloca ptr, align 8
  %11 = alloca ptr, align 8
  %12 = alloca i32, align 4
  %13 = alloca i32, align 4
  store i32 %0, ptr %7, align 4
  store i32 %1, ptr %8, align 4
  store i32 %2, ptr %9, align 4
  store ptr %3, ptr %10, align 8
  store ptr %4, ptr %11, align 8
  call void @llvm.lifetime.start.p0(i64 4, ptr %12) #10
  %14 = load ptr, ptr %11, align 8
  store i8 0, ptr %14, align 1
  %15 = load i32, ptr %9, align 4
  %16 = call i32 @get_mxact_status_for_lock(i32 noundef %15, i1 noundef zeroext false)
  store i32 %16, ptr %12, align 4
  %17 = load i32, ptr %8, align 4
  %18 = call zeroext i1 @TransactionIdIsCurrentTransactionId(i32 noundef %17)
  br i1 %18, label %19, label %20

19:                                               ; preds = %5
  store i32 2, ptr %6, align 4
  store i32 1, ptr %13, align 4
  br label %88

20:                                               ; preds = %5
  %21 = load i32, ptr %8, align 4
  %22 = call zeroext i1 @TransactionIdIsInProgress(i32 noundef %21)
  br i1 %22, label %23, label %44

23:                                               ; preds = %20
  %24 = load i32, ptr %7, align 4
  %25 = zext i32 %24 to i64
  %26 = getelementptr inbounds nuw [6 x i32], ptr @MultiXactStatusLock, i64 0, i64 %25
  %27 = load i32, ptr %26, align 4
  %28 = sext i32 %27 to i64
  %29 = getelementptr inbounds [4 x %struct.anon.3], ptr @tupleLockExtraInfo, i64 0, i64 %28
  %30 = getelementptr inbounds nuw %struct.anon.3, ptr %29, i32 0, i32 0
  %31 = load i32, ptr %30, align 4
  %32 = load i32, ptr %12, align 4
  %33 = zext i32 %32 to i64
  %34 = getelementptr inbounds nuw [6 x i32], ptr @MultiXactStatusLock, i64 0, i64 %33
  %35 = load i32, ptr %34, align 4
  %36 = sext i32 %35 to i64
  %37 = getelementptr inbounds [4 x %struct.anon.3], ptr @tupleLockExtraInfo, i64 0, i64 %36
  %38 = getelementptr inbounds nuw %struct.anon.3, ptr %37, i32 0, i32 0
  %39 = load i32, ptr %38, align 4
  %40 = call zeroext i1 @DoLockModesConflict(i32 noundef %31, i32 noundef %39)
  br i1 %40, label %41, label %43

41:                                               ; preds = %23
  %42 = load ptr, ptr %11, align 8
  store i8 1, ptr %42, align 1
  br label %43

43:                                               ; preds = %41, %23
  store i32 0, ptr %6, align 4
  store i32 1, ptr %13, align 4
  br label %88

44:                                               ; preds = %20
  %45 = load i32, ptr %8, align 4
  %46 = call zeroext i1 @TransactionIdDidAbort(i32 noundef %45)
  br i1 %46, label %47, label %48

47:                                               ; preds = %44
  store i32 0, ptr %6, align 4
  store i32 1, ptr %13, align 4
  br label %88

48:                                               ; preds = %44
  %49 = load i32, ptr %8, align 4
  %50 = call zeroext i1 @TransactionIdDidCommit(i32 noundef %49)
  br i1 %50, label %51, label %84

51:                                               ; preds = %48
  %52 = load i32, ptr %7, align 4
  %53 = icmp ugt i32 %52, 3
  br i1 %53, label %55, label %54

54:                                               ; preds = %51
  store i32 0, ptr %6, align 4
  store i32 1, ptr %13, align 4
  br label %88

55:                                               ; preds = %51
  %56 = load i32, ptr %7, align 4
  %57 = zext i32 %56 to i64
  %58 = getelementptr inbounds nuw [6 x i32], ptr @MultiXactStatusLock, i64 0, i64 %57
  %59 = load i32, ptr %58, align 4
  %60 = sext i32 %59 to i64
  %61 = getelementptr inbounds [4 x %struct.anon.3], ptr @tupleLockExtraInfo, i64 0, i64 %60
  %62 = getelementptr inbounds nuw %struct.anon.3, ptr %61, i32 0, i32 0
  %63 = load i32, ptr %62, align 4
  %64 = load i32, ptr %12, align 4
  %65 = zext i32 %64 to i64
  %66 = getelementptr inbounds nuw [6 x i32], ptr @MultiXactStatusLock, i64 0, i64 %65
  %67 = load i32, ptr %66, align 4
  %68 = sext i32 %67 to i64
  %69 = getelementptr inbounds [4 x %struct.anon.3], ptr @tupleLockExtraInfo, i64 0, i64 %68
  %70 = getelementptr inbounds nuw %struct.anon.3, ptr %69, i32 0, i32 0
  %71 = load i32, ptr %70, align 4
  %72 = call zeroext i1 @DoLockModesConflict(i32 noundef %63, i32 noundef %71)
  br i1 %72, label %73, label %83

73:                                               ; preds = %55
  %74 = load ptr, ptr %10, align 8
  %75 = getelementptr inbounds nuw %struct.HeapTupleData, ptr %74, i32 0, i32 1
  %76 = load ptr, ptr %10, align 8
  %77 = getelementptr inbounds nuw %struct.HeapTupleData, ptr %76, i32 0, i32 3
  %78 = load ptr, ptr %77, align 8
  %79 = getelementptr inbounds nuw %struct.HeapTupleHeaderData, ptr %78, i32 0, i32 1
  %80 = call zeroext i1 @ItemPointerEquals(ptr noundef %75, ptr noundef %79)
  br i1 %80, label %82, label %81

81:                                               ; preds = %73
  store i32 3, ptr %6, align 4
  store i32 1, ptr %13, align 4
  br label %88

82:                                               ; preds = %73
  store i32 4, ptr %6, align 4
  store i32 1, ptr %13, align 4
  br label %88

83:                                               ; preds = %55
  store i32 0, ptr %6, align 4
  store i32 1, ptr %13, align 4
  br label %88

84:                                               ; preds = %48
  br label %85

85:                                               ; preds = %84
  br label %86

86:                                               ; preds = %85
  br label %87

87:                                               ; preds = %86
  store i32 0, ptr %6, align 4
  store i32 1, ptr %13, align 4
  br label %88

88:                                               ; preds = %87, %83, %82, %81, %54, %47, %43, %19
  call void @llvm.lifetime.end.p0(i64 4, ptr %12) #10
  %89 = load i32, ptr %6, align 4
  ret i32 %89
}