; Function Attrs: nounwind uwtable
define internal fastcc range(i32 0, 5) i32 @test_lockmode_for_conflict(i32 noundef %0, i32 noundef %1, i32 noundef %2, ptr noundef nonnull %3, ptr noundef nonnull writeonly captures(none) initializes((0, 1)) %4) unnamed_addr #2 {
get_mxact_status_for_lock.exit:
  store i8 0, ptr %4, align 1
  %5 = zext i32 %2 to i64
  %6 = getelementptr inbounds nuw [4 x %struct.anon.3], ptr @tupleLockExtraInfo, i64 0, i64 %5, i32 1
  %.0.i = load i32, ptr %6, align 4
  %7 = tail call zeroext i1 @TransactionIdIsCurrentTransactionId(i32 noundef %1) #13
  br i1 %7, label %50, label %8

8:                                                ; preds = %get_mxact_status_for_lock.exit
  %9 = tail call zeroext i1 @TransactionIdIsInProgress(i32 noundef %1) #13
  br i1 %9, label %10, label %25

10:                                               ; preds = %8
  %11 = zext i32 %0 to i64
  %12 = getelementptr inbounds nuw [6 x i32], ptr @MultiXactStatusLock, i64 0, i64 %11
  %13 = load i32, ptr %12, align 4
  %14 = sext i32 %13 to i64
  %15 = getelementptr inbounds [4 x %struct.anon.3], ptr @tupleLockExtraInfo, i64 0, i64 %14
  %16 = load i32, ptr %15, align 4
  %17 = zext i32 %.0.i to i64
  %18 = getelementptr inbounds nuw [6 x i32], ptr @MultiXactStatusLock, i64 0, i64 %17
  %19 = load i32, ptr %18, align 4
  %20 = sext i32 %19 to i64
  %21 = getelementptr inbounds [4 x %struct.anon.3], ptr @tupleLockExtraInfo, i64 0, i64 %20
  %22 = load i32, ptr %21, align 4
  %23 = tail call zeroext i1 @DoLockModesConflict(i32 noundef %16, i32 noundef %22) #13
  br i1 %23, label %24, label %50

24:                                               ; preds = %10
  store i8 1, ptr %4, align 1
  br label %50

25:                                               ; preds = %8
  %26 = tail call zeroext i1 @TransactionIdDidAbort(i32 noundef %1) #13
  br i1 %26, label %50, label %27

27:                                               ; preds = %25
  %28 = tail call zeroext i1 @TransactionIdDidCommit(i32 noundef %1) #13
  %29 = icmp ugt i32 %0, 3
  %or.cond = and i1 %29, %28
  br i1 %or.cond, label %30, label %50

30:                                               ; preds = %27
  %31 = zext i32 %0 to i64
  %32 = getelementptr inbounds nuw [6 x i32], ptr @MultiXactStatusLock, i64 0, i64 %31
  %33 = load i32, ptr %32, align 4
  %34 = sext i32 %33 to i64
  %35 = getelementptr inbounds [4 x %struct.anon.3], ptr @tupleLockExtraInfo, i64 0, i64 %34
  %36 = load i32, ptr %35, align 4
  %37 = zext i32 %.0.i to i64
  %38 = getelementptr inbounds nuw [6 x i32], ptr @MultiXactStatusLock, i64 0, i64 %37
  %39 = load i32, ptr %38, align 4
  %40 = sext i32 %39 to i64
  %41 = getelementptr inbounds [4 x %struct.anon.3], ptr @tupleLockExtraInfo, i64 0, i64 %40
  %42 = load i32, ptr %41, align 4
  %43 = tail call zeroext i1 @DoLockModesConflict(i32 noundef %36, i32 noundef %42) #13
  br i1 %43, label %44, label %50

44:                                               ; preds = %30
  %45 = getelementptr inbounds nuw i8, ptr %3, i64 4
  %46 = getelementptr inbounds nuw i8, ptr %3, i64 16
  %47 = load ptr, ptr %46, align 8
  %48 = getelementptr inbounds nuw i8, ptr %47, i64 12
  %49 = tail call zeroext i1 @ItemPointerEquals(ptr noundef nonnull %45, ptr noundef nonnull %48) #13
  %. = select i1 %49, i32 4, i32 3
  br label %50

50:                                               ; preds = %27, %30, %44, %25, %10, %24, %get_mxact_status_for_lock.exit
  %.0 = phi i32 [ 2, %get_mxact_status_for_lock.exit ], [ 0, %24 ], [ 0, %10 ], [ 0, %25 ], [ %., %44 ], [ 0, %30 ], [ 0, %27 ]
  ret i32 %.0
}